; Function Attrs: mustprogress uwtable
define noundef zeroext i1 @_ZNK5Yosys3AST7AstNode21is_recursive_functionEv(ptr noundef nonnull align 8 dereferenceable(284) %0) local_unnamed_addr #3 align 2 personality ptr @__gxx_personality_v0 {
  %2 = alloca ptr, align 8
  %3 = alloca %"class.std::set.219", align 8
  %4 = alloca %"class.std::function", align 8
  call void @llvm.lifetime.start.p0(i64 48, ptr nonnull %3) #35
  %5 = getelementptr inbounds nuw i8, ptr %3, i64 8
  store i32 0, ptr %5, align 8, !tbaa !157
  %6 = getelementptr inbounds nuw i8, ptr %3, i64 16
  store ptr null, ptr %6, align 8, !tbaa !128
  %7 = getelementptr inbounds nuw i8, ptr %3, i64 24
  store ptr %5, ptr %7, align 8, !tbaa !54
  %8 = getelementptr inbounds nuw i8, ptr %3, i64 32
  store ptr %5, ptr %8, align 8, !tbaa !158
  %9 = getelementptr inbounds nuw i8, ptr %3, i64 40
  store i64 0, ptr %9, align 8, !tbaa !136
  call void @llvm.lifetime.start.p0(i64 32, ptr nonnull %4) #35
  %10 = getelementptr inbounds nuw i8, ptr %4, i64 16
  %11 = getelementptr inbounds nuw i8, ptr %4, i64 8
  store i64 0, ptr %11, align 8
  %12 = invoke noalias noundef nonnull dereferenceable(24) ptr @_Znwm(i64 noundef 24) #40
          to label %13 unwind label %27

13:                                               ; preds = %1
  %14 = getelementptr inbounds nuw i8, ptr %4, i64 24
  store ptr %3, ptr %12, align 16, !tbaa !667
  %.sroa.5.0..sroa_idx = getelementptr inbounds nuw i8, ptr %12, i64 8
  store ptr %0, ptr %.sroa.5.0..sroa_idx, align 8, !tbaa !51
  %.sroa.6.0..sroa_idx = getelementptr inbounds nuw i8, ptr %12, i64 16
  store ptr %4, ptr %.sroa.6.0..sroa_idx, align 16, !tbaa !669
  store ptr %12, ptr %4, align 8, !tbaa !248
  store ptr @"_ZNSt17_Function_handlerIFbPKN5Yosys3AST7AstNodeEEZNKS2_21is_recursive_functionEvE3$_0E9_M_invokeERKSt9_Any_dataOS4_", ptr %14, align 8, !tbaa !671
  store ptr @"_ZNSt17_Function_handlerIFbPKN5Yosys3AST7AstNodeEEZNKS2_21is_recursive_functionEvE3$_0E10_M_managerERSt9_Any_dataRKS8_St18_Manager_operation", ptr %10, align 8, !tbaa !674
  call void @llvm.lifetime.start.p0(i64 8, ptr nonnull %2)
  store ptr %0, ptr %2, align 8, !tbaa !51
  %15 = invoke noundef zeroext i1 @"_ZNSt17_Function_handlerIFbPKN5Yosys3AST7AstNodeEEZNKS2_21is_recursive_functionEvE3$_0E9_M_invokeERKSt9_Any_dataOS4_"(ptr noundef nonnull align 8 dereferenceable(32) %4, ptr noundef nonnull align 8 dereferenceable(8) %2)
          to label %16 unwind label %29

16:                                               ; preds = %13
  call void @llvm.lifetime.end.p0(i64 8, ptr nonnull %2)
  %17 = load ptr, ptr %10, align 8, !tbaa !674
  %.not.i = icmp eq ptr %17, null
  br i1 %.not.i, label %_ZNSt14_Function_baseD2Ev.exit, label %18

18:                                               ; preds = %16
  %19 = invoke noundef zeroext i1 %17(ptr noundef nonnull align 8 dereferenceable(32) %4, ptr noundef nonnull align 8 dereferenceable(32) %4, i32 noundef 3)
          to label %_ZNSt14_Function_baseD2Ev.exit unwind label %20

20:                                               ; preds = %18
  %21 = landingpad { ptr, i32 }
          catch ptr null
  %22 = extractvalue { ptr, i32 } %21, 0
  call void @__clang_call_terminate(ptr %22) #36
  unreachable

_ZNSt14_Function_baseD2Ev.exit:                   ; preds = %16, %18
  call void @llvm.lifetime.end.p0(i64 32, ptr nonnull %4) #35
  %23 = load ptr, ptr %6, align 8, !tbaa !128
  invoke void @_ZNSt8_Rb_treeIPKN5Yosys3AST7AstNodeES4_St9_IdentityIS4_ESt4lessIS4_ESaIS4_EE8_M_eraseEPSt13_Rb_tree_nodeIS4_E(ptr noundef nonnull align 8 dereferenceable(48) %3, ptr noundef %23)
          to label %_ZNSt3setIPKN5Yosys3AST7AstNodeESt4lessIS4_ESaIS4_EED2Ev.exit unwind label %24

24:                                               ; preds = %_ZNSt14_Function_baseD2Ev.exit
  %25 = landingpad { ptr, i32 }
          catch ptr null
  %26 = extractvalue { ptr, i32 } %25, 0
  call void @__clang_call_terminate(ptr %26) #36
  unreachable

_ZNSt3setIPKN5Yosys3AST7AstNodeESt4lessIS4_ESaIS4_EED2Ev.exit: ; preds = %_ZNSt14_Function_baseD2Ev.exit
  call void @llvm.lifetime.end.p0(i64 48, ptr nonnull %3) #35
  ret i1 %15

27:                                               ; preds = %1
  %28 = landingpad { ptr, i32 }
          cleanup
  br label %_ZNSt14_Function_baseD2Ev.exit6

29:                                               ; preds = %13
  %30 = landingpad { ptr, i32 }
          cleanup
  %31 = load ptr, ptr %10, align 8, !tbaa !674
  %.not.i5 = icmp eq ptr %31, null
  br i1 %.not.i5, label %_ZNSt14_Function_baseD2Ev.exit6, label %32

32:                                               ; preds = %29
  %33 = invoke noundef zeroext i1 %31(ptr noundef nonnull align 8 dereferenceable(32) %4, ptr noundef nonnull align 8 dereferenceable(32) %4, i32 noundef 3)
          to label %_ZNSt14_Function_baseD2Ev.exit6 unwind label %34

34:                                               ; preds = %32
  %35 = landingpad { ptr, i32 }
          catch ptr null
  %36 = extractvalue { ptr, i32 } %35, 0
  call void @__clang_call_terminate(ptr %36) #36
  unreachable

_ZNSt14_Function_baseD2Ev.exit6:                  ; preds = %32, %29, %27
  %.pn = phi { ptr, i32 } [ %28, %27 ], [ %30, %29 ], [ %30, %32 ]
  call void @llvm.lifetime.end.p0(i64 32, ptr nonnull %4) #35
  call void @_ZNSt3setIPKN5Yosys3AST7AstNodeESt4lessIS4_ESaIS4_EED2Ev(ptr noundef nonnull align 8 dereferenceable(48) %3) #35
  call void @llvm.lifetime.end.p0(i64 48, ptr nonnull %3) #35
  resume { ptr, i32 } %.pn
}